target datalayout = "e-m:e-p270:32:32-p271:32:32-p272:64:64-i64:64-i128:128-f80:128-n8:16:32:64-S128"
target triple = "x86_64-pc-linux-gnu"

%struct.Kit_Mux_t_ = type { i32 }
%struct.Vec_Int_t_ = type { i32, i32, ptr }
%struct.Vec_Ptr_t_ = type { i32, i32, ptr }
%union.anon.0 = type { %struct.Kit_Mux_t_ }

; Function Attrs: inlinehint nounwind uwtable
define internal i32 @Kit_TruthWordNum(i32 noundef %0) #3 {
  %2 = alloca i32, align 4
  store i32 %0, ptr %2, align 4, !tbaa !8
  %3 = load i32, ptr %2, align 4, !tbaa !8
  %4 = icmp sle i32 %3, 5
  br i1 %4, label %5, label %6

5:                                                ; preds = %1
  br label %10

6:                                                ; preds = %1
  %7 = load i32, ptr %2, align 4, !tbaa !8
  %8 = sub nsw i32 %7, 5
  %9 = shl i32 1, %8
  br label %10

10:                                               ; preds = %6, %5
  %11 = phi i32 [ 1, %5 ], [ %9, %6 ]
  ret i32 %11
}

; Function Attrs: inlinehint nounwind uwtable
define internal void @Kit_TruthNot(ptr noundef %0, ptr noundef %1, i32 noundef %2) #3 {
  %4 = alloca ptr, align 8
  %5 = alloca ptr, align 8
  %6 = alloca i32, align 4
  %7 = alloca i32, align 4
  store ptr %0, ptr %4, align 8, !tbaa !17
  store ptr %1, ptr %5, align 8, !tbaa !17
  store i32 %2, ptr %6, align 4, !tbaa !8
  call void @llvm.lifetime.start.p0(i64 4, ptr %7) #8
  %8 = load i32, ptr %6, align 4, !tbaa !8
  %9 = call i32 @Kit_TruthWordNum(i32 noundef %8)
  %10 = sub nsw i32 %9, 1
  store i32 %10, ptr %7, align 4, !tbaa !8
  br label %11

11:                                               ; preds = %25, %3
  %12 = load i32, ptr %7, align 4, !tbaa !8
  %13 = icmp sge i32 %12, 0
  br i1 %13, label %14, label %28

14:                                               ; preds = %11
  %15 = load ptr, ptr %5, align 8, !tbaa !17
  %16 = load i32, ptr %7, align 4, !tbaa !8
  %17 = sext i32 %16 to i64
  %18 = getelementptr inbounds i32, ptr %15, i64 %17
  %19 = load i32, ptr %18, align 4, !tbaa !8
  %20 = xor i32 %19, -1
  %21 = load ptr, ptr %4, align 8, !tbaa !17
  %22 = load i32, ptr %7, align 4, !tbaa !8
  %23 = sext i32 %22 to i64
  %24 = getelementptr inbounds i32, ptr %21, i64 %23
  store i32 %20, ptr %24, align 4, !tbaa !8
  br label %25

25:                                               ; preds = %14
  %26 = load i32, ptr %7, align 4, !tbaa !8
  %27 = add nsw i32 %26, -1
  store i32 %27, ptr %7, align 4, !tbaa !8
  br label %11, !llvm.loop !48

28:                                               ; preds = %11
  call void @llvm.lifetime.end.p0(i64 4, ptr %7) #8
  ret void
}

; Function Attrs: inlinehint nounwind uwtable
define internal i32 @Kit_Int2Mux(i32 noundef %0) #3 {
  %2 = alloca %struct.Kit_Mux_t_, align 4
  %3 = alloca i32, align 4
  %4 = alloca %union.anon.0, align 4
  store i32 %0, ptr %3, align 4, !tbaa !8
  call void @llvm.lifetime.start.p0(i64 4, ptr %4) #8
  %5 = load i32, ptr %3, align 4, !tbaa !8
  store i32 %5, ptr %4, align 4, !tbaa !40
  call void @llvm.memcpy.p0.p0.i64(ptr align 4 %2, ptr align 4 %4, i64 4, i1 false), !tbaa.struct !39
  call void @llvm.lifetime.end.p0(i64 4, ptr %4) #8
  %6 = getelementptr inbounds nuw %struct.Kit_Mux_t_, ptr %2, i32 0, i32 0
  %7 = load i32, ptr %6, align 4
  ret i32 %7
}

; Function Attrs: inlinehint nounwind uwtable
define internal i32 @Vec_IntEntry(ptr noundef %0, i32 noundef %1) #3 {
  %3 = alloca ptr, align 8
  %4 = alloca i32, align 4
  store ptr %0, ptr %3, align 8, !tbaa !24
  store i32 %1, ptr %4, align 4, !tbaa !8
  %5 = load ptr, ptr %3, align 8, !tbaa !24
  %6 = getelementptr inbounds nuw %struct.Vec_Int_t_, ptr %5, i32 0, i32 2
  %7 = load ptr, ptr %6, align 8, !tbaa !38
  %8 = load i32, ptr %4, align 4, !tbaa !8
  %9 = sext i32 %8 to i64
  %10 = getelementptr inbounds i32, ptr %7, i64 %9
  %11 = load i32, ptr %10, align 4, !tbaa !8
  ret i32 %11
}

; Function Attrs: inlinehint nounwind uwtable
define internal i32 @Vec_IntSize(ptr noundef %0) #3 {
  %2 = alloca ptr, align 8
  store ptr %0, ptr %2, align 8, !tbaa !24
  %3 = load ptr, ptr %2, align 8, !tbaa !24
  %4 = getelementptr inbounds nuw %struct.Vec_Int_t_, ptr %3, i32 0, i32 1
  %5 = load i32, ptr %4, align 4, !tbaa !35
  ret i32 %5
}

; Function Attrs: inlinehint nounwind uwtable
define internal void @Kit_TruthFill(ptr noundef %0, i32 noundef %1) #3 {
  %3 = alloca ptr, align 8
  %4 = alloca i32, align 4
  %5 = alloca i32, align 4
  store ptr %0, ptr %3, align 8, !tbaa !17
  store i32 %1, ptr %4, align 4, !tbaa !8
  call void @llvm.lifetime.start.p0(i64 4, ptr %5) #8
  %6 = load i32, ptr %4, align 4, !tbaa !8
  %7 = call i32 @Kit_TruthWordNum(i32 noundef %6)
  %8 = sub nsw i32 %7, 1
  store i32 %8, ptr %5, align 4, !tbaa !8
  br label %9

9:                                                ; preds = %17, %2
  %10 = load i32, ptr %5, align 4, !tbaa !8
  %11 = icmp sge i32 %10, 0
  br i1 %11, label %12, label %20

12:                                               ; preds = %9
  %13 = load ptr, ptr %3, align 8, !tbaa !17
  %14 = load i32, ptr %5, align 4, !tbaa !8
  %15 = sext i32 %14 to i64
  %16 = getelementptr inbounds i32, ptr %13, i64 %15
  store i32 -1, ptr %16, align 4, !tbaa !8
  br label %17

17:                                               ; preds = %12
  %18 = load i32, ptr %5, align 4, !tbaa !8
  %19 = add nsw i32 %18, -1
  store i32 %19, ptr %5, align 4, !tbaa !8
  br label %9, !llvm.loop !47

20:                                               ; preds = %9
  call void @llvm.lifetime.end.p0(i64 4, ptr %5) #8
  ret void
}

; Function Attrs: inlinehint nounwind uwtable
define internal ptr @Vec_PtrEntry(ptr noundef %0, i32 noundef %1) #3 {
  %3 = alloca ptr, align 8
  %4 = alloca i32, align 4
  store ptr %0, ptr %3, align 8, !tbaa !41
  store i32 %1, ptr %4, align 4, !tbaa !8
  %5 = load ptr, ptr %3, align 8, !tbaa !41
  %6 = getelementptr inbounds nuw %struct.Vec_Ptr_t_, ptr %5, i32 0, i32 2
  %7 = load ptr, ptr %6, align 8, !tbaa !44
  %8 = load i32, ptr %4, align 4, !tbaa !8
  %9 = sext i32 %8 to i64
  %10 = getelementptr inbounds ptr, ptr %7, i64 %9
  %11 = load ptr, ptr %10, align 8, !tbaa !46
  ret ptr %11
}

; Function Attrs: nounwind uwtable
define ptr @Kit_CloudToTruth(ptr noundef %0, i32 noundef %1, ptr noundef %2, i32 noundef %3) #0 {
  %5 = alloca ptr, align 8
  %6 = alloca i32, align 4
  %7 = alloca ptr, align 8
  %8 = alloca i32, align 4
  %9 = alloca ptr, align 8
  %10 = alloca ptr, align 8
  %11 = alloca ptr, align 8
  %12 = alloca %struct.Kit_Mux_t_, align 4
  %13 = alloca i32, align 4
  %14 = alloca i32, align 4
  %15 = alloca %struct.Kit_Mux_t_, align 4
  store ptr %0, ptr %5, align 8, !tbaa !24
  store i32 %1, ptr %6, align 4, !tbaa !8
  store ptr %2, ptr %7, align 8, !tbaa !41
  store i32 %3, ptr %8, align 4, !tbaa !8
  call void @llvm.lifetime.start.p0(i64 8, ptr %9) #8
  call void @llvm.lifetime.start.p0(i64 8, ptr %10) #8
  call void @llvm.lifetime.start.p0(i64 8, ptr %11) #8
  call void @llvm.lifetime.start.p0(i64 4, ptr %12) #8
  call void @llvm.lifetime.start.p0(i64 4, ptr %13) #8
  call void @llvm.lifetime.start.p0(i64 4, ptr %14) #8
  %16 = load ptr, ptr %7, align 8, !tbaa !41
  %17 = call ptr @Vec_PtrEntry(ptr noundef %16, i32 noundef 0)
  store ptr %17, ptr %9, align 8, !tbaa !17
  %18 = load ptr, ptr %9, align 8, !tbaa !17
  %19 = load i32, ptr %6, align 4, !tbaa !8
  call void @Kit_TruthFill(ptr noundef %18, i32 noundef %19)
  store i32 1, ptr %13, align 4, !tbaa !8
  br label %20

20:                                               ; preds = %68, %4
  %21 = load i32, ptr %13, align 4, !tbaa !8
  %22 = load ptr, ptr %5, align 8, !tbaa !24
  %23 = call i32 @Vec_IntSize(ptr noundef %22)
  %24 = icmp slt i32 %21, %23
  br i1 %24, label %25, label %29

25:                                               ; preds = %20
  %26 = load ptr, ptr %5, align 8, !tbaa !24
  %27 = load i32, ptr %13, align 4, !tbaa !8
  %28 = call i32 @Vec_IntEntry(ptr noundef %26, i32 noundef %27)
  store i32 %28, ptr %14, align 4, !tbaa !8
  br label %29

29:                                               ; preds = %25, %20
  %30 = phi i1 [ false, %20 ], [ true, %25 ]
  br i1 %30, label %31, label %71

31:                                               ; preds = %29
  call void @llvm.lifetime.start.p0(i64 4, ptr %15) #8
  %32 = load i32, ptr %14, align 4, !tbaa !8
  %33 = call i32 @Kit_Int2Mux(i32 noundef %32)
  %34 = getelementptr inbounds nuw %struct.Kit_Mux_t_, ptr %15, i32 0, i32 0
  store i32 %33, ptr %34, align 4
  call void @llvm.memcpy.p0.p0.i64(ptr align 4 %12, ptr align 4 %15, i64 4, i1 false), !tbaa.struct !39
  call void @llvm.lifetime.end.p0(i64 4, ptr %15) #8
  %35 = load ptr, ptr %7, align 8, !tbaa !41
  %36 = load i32, ptr %12, align 4
  %37 = lshr i32 %36, 18
  %38 = and i32 %37, 4095
  %39 = call ptr @Vec_PtrEntry(ptr noundef %35, i32 noundef %38)
  store ptr %39, ptr %10, align 8, !tbaa !17
  %40 = load ptr, ptr %7, align 8, !tbaa !41
  %41 = load i32, ptr %12, align 4
  %42 = lshr i32 %41, 6
  %43 = and i32 %42, 4095
  %44 = call ptr @Vec_PtrEntry(ptr noundef %40, i32 noundef %43)
  store ptr %44, ptr %11, align 8, !tbaa !17
  %45 = load ptr, ptr %7, align 8, !tbaa !41
  %46 = load i32, ptr %13, align 4, !tbaa !8
  %47 = call ptr @Vec_PtrEntry(ptr noundef %45, i32 noundef %46)
  store ptr %47, ptr %9, align 8, !tbaa !17
  %48 = load ptr, ptr %9, align 8, !tbaa !17
  %49 = load ptr, ptr %10, align 8, !tbaa !17
  %50 = load ptr, ptr %11, align 8, !tbaa !17
  %51 = load i32, ptr %6, align 4, !tbaa !8
  %52 = load i32, ptr %8, align 4, !tbaa !8
  %53 = icmp ne i32 %52, 0
  br i1 %53, label %54, label %57

54:                                               ; preds = %31
  %55 = load i32, ptr %12, align 4
  %56 = and i32 %55, 63
  br label %63

57:                                               ; preds = %31
  %58 = load i32, ptr %6, align 4, !tbaa !8
  %59 = sub nsw i32 %58, 1
  %60 = load i32, ptr %12, align 4
  %61 = and i32 %60, 63
  %62 = sub nsw i32 %59, %61
  br label %63

63:                                               ; preds = %57, %54
  %64 = phi i32 [ %56, %54 ], [ %62, %57 ]
  %65 = load i32, ptr %12, align 4
  %66 = lshr i32 %65, 30
  %67 = and i32 %66, 1
  call void @Kit_TruthMuxVarPhase(ptr noundef %48, ptr noundef %49, ptr noundef %50, i32 noundef %51, i32 noundef %64, i32 noundef %67)
  br label %68

68:                                               ; preds = %63
  %69 = load i32, ptr %13, align 4, !tbaa !8
  %70 = add nsw i32 %69, 1
  store i32 %70, ptr %13, align 4, !tbaa !8
  br label %20, !llvm.loop !43

71:                                               ; preds = %29
  %72 = load i32, ptr %12, align 4
  %73 = lshr i32 %72, 31
  %74 = icmp ne i32 %73, 0
  br i1 %74, label %75, label %79

75:                                               ; preds = %71
  %76 = load ptr, ptr %9, align 8, !tbaa !17
  %77 = load ptr, ptr %9, align 8, !tbaa !17
  %78 = load i32, ptr %6, align 4, !tbaa !8
  call void @Kit_TruthNot(ptr noundef %76, ptr noundef %77, i32 noundef %78)
  br label %79

79:                                               ; preds = %75, %71
  %80 = load ptr, ptr %9, align 8, !tbaa !17
  call void @llvm.lifetime.end.p0(i64 4, ptr %14) #8
  call void @llvm.lifetime.end.p0(i64 4, ptr %13) #8
  call void @llvm.lifetime.end.p0(i64 4, ptr %12) #8
  call void @llvm.lifetime.end.p0(i64 8, ptr %11) #8
  call void @llvm.lifetime.end.p0(i64 8, ptr %10) #8
  call void @llvm.lifetime.end.p0(i64 8, ptr %9) #8
  ret ptr %80
}