; Function Attrs: nounwind uwtable
define ptr @Kit_CloudToTruth(ptr noundef readonly captures(none) %0, i32 noundef %1, ptr noundef readonly captures(none) %2, i32 noundef %3) local_unnamed_addr #0 {
  %5 = getelementptr i8, ptr %2, i64 8
  %.val = load ptr, ptr %5, align 8, !tbaa !34
  %6 = load ptr, ptr %.val, align 8, !tbaa !36
  %7 = icmp slt i32 %1, 6
  %8 = add nsw i32 %1, -5
  %9 = shl nuw i32 1, %8
  %spec.select.i = select i1 %7, i32 1, i32 %9
  %10 = icmp slt i32 %spec.select.i, 1
  br i1 %10, label %Kit_TruthFill.exit, label %select.unfold.preheader.i

select.unfold.preheader.i:                        ; preds = %4
  %11 = zext nneg i32 %spec.select.i to i64
  %12 = shl nuw nsw i64 %11, 2
  tail call void @llvm.memset.p0.i64(ptr noundef nonnull align 4 dereferenceable(1) %6, i8 -1, i64 %12, i1 false), !tbaa !14
  br label %Kit_TruthFill.exit

Kit_TruthFill.exit:                               ; preds = %4, %select.unfold.preheader.i
  %13 = getelementptr i8, ptr %0, i64 4
  %.val3338 = load i32, ptr %13, align 4, !tbaa !20
  %14 = icmp sgt i32 %.val3338, 1
  br i1 %14, label %.lr.ph, label %.critedge

.lr.ph:                                           ; preds = %Kit_TruthFill.exit
  %15 = getelementptr i8, ptr %0, i64 8
  %.not29 = icmp eq i32 %3, 0
  br i1 %.not29, label %.lr.ph.split.us, label %.lr.ph.split

.lr.ph.split.us:                                  ; preds = %.lr.ph, %.lr.ph.split.us
  %indvars.iv47 = phi i64 [ %indvars.iv.next48, %.lr.ph.split.us ], [ 1, %.lr.ph ]
  %.val34.us = load ptr, ptr %15, align 8, !tbaa !24
  %16 = getelementptr inbounds nuw i32, ptr %.val34.us, i64 %indvars.iv47
  %17 = load i32, ptr %16, align 4, !tbaa !14
  %18 = lshr i32 %17, 18
  %19 = and i32 %18, 4095
  %.val30.us = load ptr, ptr %5, align 8, !tbaa !34
  %20 = zext nneg i32 %19 to i64
  %21 = getelementptr inbounds nuw ptr, ptr %.val30.us, i64 %20
  %22 = load ptr, ptr %21, align 8, !tbaa !36
  %23 = lshr i32 %17, 6
  %24 = and i32 %23, 4095
  %25 = zext nneg i32 %24 to i64
  %26 = getelementptr inbounds nuw ptr, ptr %.val30.us, i64 %25
  %27 = load ptr, ptr %26, align 8, !tbaa !36
  %28 = getelementptr inbounds nuw ptr, ptr %.val30.us, i64 %indvars.iv47
  %29 = load ptr, ptr %28, align 8, !tbaa !36
  %30 = and i32 %17, 63
  %31 = xor i32 %30, -1
  %32 = add i32 %1, %31
  %33 = lshr i32 %17, 30
  %34 = and i32 %33, 1
  tail call void @Kit_TruthMuxVarPhase(ptr noundef %29, ptr noundef %22, ptr noundef %27, i32 noundef %1, i32 noundef %32, i32 noundef %34) #8
  %indvars.iv.next48 = add nuw nsw i64 %indvars.iv47, 1
  %.val33.us = load i32, ptr %13, align 4, !tbaa !20
  %35 = sext i32 %.val33.us to i64
  %36 = icmp slt i64 %indvars.iv.next48, %35
  br i1 %36, label %.lr.ph.split.us, label %.critedge, !llvm.loop !37

.lr.ph.split:                                     ; preds = %.lr.ph, %.lr.ph.split
  %indvars.iv = phi i64 [ %indvars.iv.next, %.lr.ph.split ], [ 1, %.lr.ph ]
  %.val34 = load ptr, ptr %15, align 8, !tbaa !24
  %37 = getelementptr inbounds nuw i32, ptr %.val34, i64 %indvars.iv
  %38 = load i32, ptr %37, align 4, !tbaa !14
  %39 = lshr i32 %38, 18
  %40 = and i32 %39, 4095
  %.val30 = load ptr, ptr %5, align 8, !tbaa !34
  %41 = zext nneg i32 %40 to i64
  %42 = getelementptr inbounds nuw ptr, ptr %.val30, i64 %41
  %43 = load ptr, ptr %42, align 8, !tbaa !36
  %44 = lshr i32 %38, 6
  %45 = and i32 %44, 4095
  %46 = zext nneg i32 %45 to i64
  %47 = getelementptr inbounds nuw ptr, ptr %.val30, i64 %46
  %48 = load ptr, ptr %47, align 8, !tbaa !36
  %49 = getelementptr inbounds nuw ptr, ptr %.val30, i64 %indvars.iv
  %50 = load ptr, ptr %49, align 8, !tbaa !36
  %51 = and i32 %38, 63
  %52 = lshr i32 %38, 30
  %53 = and i32 %52, 1
  tail call void @Kit_TruthMuxVarPhase(ptr noundef %50, ptr noundef %43, ptr noundef %48, i32 noundef %1, i32 noundef %51, i32 noundef %53) #8
  %indvars.iv.next = add nuw nsw i64 %indvars.iv, 1
  %.val33 = load i32, ptr %13, align 4, !tbaa !20
  %54 = sext i32 %.val33 to i64
  %55 = icmp slt i64 %indvars.iv.next, %54
  br i1 %55, label %.lr.ph.split, label %.critedge, !llvm.loop !37

.critedge:                                        ; preds = %.lr.ph.split, %.lr.ph.split.us, %Kit_TruthFill.exit
  %.sroa.05.0.lcssa = phi i32 [ undef, %Kit_TruthFill.exit ], [ %17, %.lr.ph.split.us ], [ %38, %.lr.ph.split ]
  %.0.lcssa = phi ptr [ %6, %Kit_TruthFill.exit ], [ %29, %.lr.ph.split.us ], [ %50, %.lr.ph.split ]
  %.not = icmp sgt i32 %.sroa.05.0.lcssa, -1
  %brmerge = or i1 %10, %.not
  br i1 %brmerge, label %Kit_TruthNot.exit, label %select.unfold.preheader.i36

select.unfold.preheader.i36:                      ; preds = %.critedge
  %56 = zext nneg i32 %spec.select.i to i64
  br label %select.unfold.i

select.unfold.i:                                  ; preds = %select.unfold.i, %select.unfold.preheader.i36
  %indvars.iv.i = phi i64 [ %56, %select.unfold.preheader.i36 ], [ %indvars.iv.next.i, %select.unfold.i ]
  %indvars.iv.next.i = add nsw i64 %indvars.iv.i, -1
  %57 = getelementptr inbounds nuw i32, ptr %.0.lcssa, i64 %indvars.iv.next.i
  %58 = load i32, ptr %57, align 4, !tbaa !14
  %59 = xor i32 %58, -1
  store i32 %59, ptr %57, align 4, !tbaa !14
  %60 = icmp samesign ugt i64 %indvars.iv.i, 1
  br i1 %60, label %select.unfold.i, label %Kit_TruthNot.exit, !llvm.loop !38

Kit_TruthNot.exit:                                ; preds = %select.unfold.i, %.critedge
  ret ptr %.0.lcssa
}